target datalayout = "e-m:e-p270:32:32-p271:32:32-p272:64:64-i64:64-i128:128-f80:128-n8:16:32:64-S128"
target triple = "x86_64-pc-linux-gnu"

%struct.dt_iop_lut3d_params_t = type { [512 x i8], i32, i32, i32, [12288 x i8], [128 x i8] }
%struct.dt_dev_pixelpipe_iop_t = type { ptr, ptr, ptr, ptr, i32, i32, %struct.dt_dev_histogram_collection_params_t, ptr, %struct.dt_dev_histogram_stats_t, [4 x i32], float, i32, i32, i64, i32, i32, %struct.dt_iop_roi_t, %struct.dt_iop_roi_t, %struct.dt_iop_roi_t, %struct.dt_iop_roi_t, i32, i32, %struct.dt_iop_buffer_dsc_t, %struct.dt_iop_buffer_dsc_t, ptr, [8 x i8] }
%struct.dt_dev_histogram_collection_params_t = type { ptr, i32 }
%struct.dt_dev_histogram_stats_t = type { i32, i64, i32, i32 }
%struct.dt_iop_roi_t = type { i32, i32, i32, i32, float }
%struct.dt_iop_buffer_dsc_t = type { i32, i32, i32, [6 x [6 x i8]], %struct.anon, [12 x i8], %struct.anon.0, [4 x float], i32, [12 x i8] }
%struct.anon = type { i16, i16 }
%struct.anon.0 = type { i32, [12 x i8], [4 x float] }
%struct.dt_iop_lut3d_data_t = type { %struct.dt_iop_lut3d_params_t, ptr, i16 }

; Function Attrs: nounwind uwtable
define void @cleanup_pipe(ptr noundef %0, ptr noundef %1, ptr noundef %2) #0 {
  %4 = alloca ptr, align 8
  %5 = alloca ptr, align 8
  %6 = alloca ptr, align 8
  %7 = alloca ptr, align 8
  store ptr %0, ptr %4, align 8, !tbaa !6
  store ptr %1, ptr %5, align 8, !tbaa !11
  store ptr %2, ptr %6, align 8, !tbaa !13
  call void @llvm.lifetime.start.p0(i64 8, ptr %7) #13
  %8 = load ptr, ptr %6, align 8, !tbaa !13
  %9 = getelementptr inbounds nuw %struct.dt_dev_pixelpipe_iop_t, ptr %8, i32 0, i32 2
  %10 = load ptr, ptr %9, align 16, !tbaa !100
  store ptr %10, ptr %7, align 8, !tbaa !110
  %11 = load ptr, ptr %7, align 8, !tbaa !110
  %12 = getelementptr inbounds nuw %struct.dt_iop_lut3d_data_t, ptr %11, i32 0, i32 1
  %13 = load ptr, ptr %12, align 8, !tbaa !115
  %14 = icmp ne ptr %13, null
  br i1 %14, label %15, label %19

15:                                               ; preds = %3
  %16 = load ptr, ptr %7, align 8, !tbaa !110
  %17 = getelementptr inbounds nuw %struct.dt_iop_lut3d_data_t, ptr %16, i32 0, i32 1
  %18 = load ptr, ptr %17, align 8, !tbaa !115
  call void @free(ptr noundef %18) #13
  br label %19

19:                                               ; preds = %15, %3
  %20 = load ptr, ptr %7, align 8, !tbaa !110
  %21 = getelementptr inbounds nuw %struct.dt_iop_lut3d_data_t, ptr %20, i32 0, i32 1
  store ptr null, ptr %21, align 8, !tbaa !115
  %22 = load ptr, ptr %7, align 8, !tbaa !110
  %23 = getelementptr inbounds nuw %struct.dt_iop_lut3d_data_t, ptr %22, i32 0, i32 2
  store i16 0, ptr %23, align 8, !tbaa !117
  %24 = load ptr, ptr %6, align 8, !tbaa !13
  %25 = getelementptr inbounds nuw %struct.dt_dev_pixelpipe_iop_t, ptr %24, i32 0, i32 2
  %26 = load ptr, ptr %25, align 16, !tbaa !100
  call void @free(ptr noundef %26) #13
  %27 = load ptr, ptr %6, align 8, !tbaa !13
  %28 = getelementptr inbounds nuw %struct.dt_dev_pixelpipe_iop_t, ptr %27, i32 0, i32 2
  store ptr null, ptr %28, align 16, !tbaa !100
  call void @llvm.lifetime.end.p0(i64 8, ptr %7) #13
  ret void
}