; Function Attrs: mustprogress nounwind willreturn uwtable
define void @cleanup_pipe(ptr noundef readnone captures(none) %0, ptr noundef readnone captures(none) %1, ptr noundef captures(none) %2) local_unnamed_addr #16 {
  %4 = getelementptr inbounds nuw i8, ptr %2, i64 16
  %5 = load ptr, ptr %4, align 16, !tbaa !76
  %6 = getelementptr inbounds nuw i8, ptr %5, i64 12944
  %7 = load ptr, ptr %6, align 8, !tbaa !92
  %.not = icmp eq ptr %7, null
  br i1 %.not, label %9, label %8

8:                                                ; preds = %3
  tail call void @free(ptr noundef nonnull %7) #25
  %.pre = load ptr, ptr %4, align 16, !tbaa !76
  br label %9

9:                                                ; preds = %8, %3
  %10 = phi ptr [ %.pre, %8 ], [ %5, %3 ]
  store ptr null, ptr %6, align 8, !tbaa !92
  %11 = getelementptr inbounds nuw i8, ptr %5, i64 12952
  store i16 0, ptr %11, align 8, !tbaa !94
  tail call void @free(ptr noundef %10) #25
  store ptr null, ptr %4, align 16, !tbaa !76
  ret void
}